target datalayout = "e-m:e-p270:32:32-p271:32:32-p272:64:64-i64:64-i128:128-f80:128-n8:16:32:64-S128"
target triple = "x86_64-pc-linux-gnu"

%struct.InterfaceInfo = type { ptr }
%struct.TypeInfo = type { ptr, ptr, i64, i64, ptr, ptr, ptr, i8, i64, ptr, ptr, ptr, ptr }
%struct.VirtioPCIDeviceTypeInfo = type { ptr, ptr, ptr, ptr, ptr, i64, i64, ptr, ptr, ptr, ptr }

@.str = private unnamed_addr constant [11 x i8] c"virtio-pci\00", align 1
@.str.2 = private unnamed_addr constant [24 x i8] c"conventional-pci-device\00", align 1
@constinit = private constant [3 x %struct.InterfaceInfo] [%struct.InterfaceInfo { ptr @.str.1 }, %struct.InterfaceInfo { ptr @.str.2 }, %struct.InterfaceInfo zeroinitializer], align 8
@.str.3 = private unnamed_addr constant [13 x i8] c"%s-base-type\00", align 1
@.str.4 = private unnamed_addr constant [26 x i8] c"!t->non_transitional_name\00", align 1
@.str.5 = private unnamed_addr constant [31 x i8] c"../qemu/hw/virtio/virtio-pci.c\00", align 1
@__PRETTY_FUNCTION__.virtio_pci_types_register = private unnamed_addr constant [64 x i8] c"void virtio_pci_types_register(const VirtioPCIDeviceTypeInfo *)\00", align 1
@.str.6 = private unnamed_addr constant [22 x i8] c"!t->transitional_name\00", align 1
@constinit.7 = private constant [3 x %struct.InterfaceInfo] [%struct.InterfaceInfo { ptr @.str.1 }, %struct.InterfaceInfo { ptr @.str.2 }, %struct.InterfaceInfo zeroinitializer], align 8

; Function Attrs: nounwind sspstrong uwtable
define dso_local void @virtio_pci_types_register(ptr noundef %0) #0 {
  %2 = alloca ptr, align 8
  %3 = alloca ptr, align 8
  %4 = alloca %struct.TypeInfo, align 8
  %5 = alloca %struct.TypeInfo, align 8
  %6 = alloca [3 x %struct.InterfaceInfo], align 8
  %7 = alloca %struct.TypeInfo, align 8
  %8 = alloca [3 x %struct.InterfaceInfo], align 8
  %9 = alloca %struct.TypeInfo, align 8
  %10 = alloca [2 x %struct.InterfaceInfo], align 8
  store ptr %0, ptr %2, align 8
  call void @llvm.lifetime.start.p0(i64 8, ptr %3) #13
  store ptr null, ptr %3, align 8
  call void @llvm.lifetime.start.p0(i64 104, ptr %4) #13
  call void @llvm.memset.p0.i64(ptr align 8 %4, i8 0, i64 104, i1 false), !annotation !4
  %11 = getelementptr inbounds nuw %struct.TypeInfo, ptr %4, i32 0, i32 0
  %12 = load ptr, ptr %2, align 8
  %13 = getelementptr inbounds nuw %struct.VirtioPCIDeviceTypeInfo, ptr %12, i32 0, i32 0
  %14 = load ptr, ptr %13, align 8
  store ptr %14, ptr %11, align 8
  %15 = getelementptr inbounds nuw %struct.TypeInfo, ptr %4, i32 0, i32 1
  %16 = load ptr, ptr %2, align 8
  %17 = getelementptr inbounds nuw %struct.VirtioPCIDeviceTypeInfo, ptr %16, i32 0, i32 4
  %18 = load ptr, ptr %17, align 8
  %19 = icmp ne ptr %18, null
  br i1 %19, label %20, label %24

20:                                               ; preds = %1
  %21 = load ptr, ptr %2, align 8
  %22 = getelementptr inbounds nuw %struct.VirtioPCIDeviceTypeInfo, ptr %21, i32 0, i32 4
  %23 = load ptr, ptr %22, align 8
  br label %25

24:                                               ; preds = %1
  br label %25

25:                                               ; preds = %24, %20
  %26 = phi ptr [ %23, %20 ], [ @.str, %24 ]
  store ptr %26, ptr %15, align 8
  %27 = getelementptr inbounds nuw %struct.TypeInfo, ptr %4, i32 0, i32 2
  %28 = load ptr, ptr %2, align 8
  %29 = getelementptr inbounds nuw %struct.VirtioPCIDeviceTypeInfo, ptr %28, i32 0, i32 5
  %30 = load i64, ptr %29, align 8
  store i64 %30, ptr %27, align 8
  %31 = getelementptr inbounds nuw %struct.TypeInfo, ptr %4, i32 0, i32 3
  store i64 0, ptr %31, align 8
  %32 = getelementptr inbounds nuw %struct.TypeInfo, ptr %4, i32 0, i32 4
  %33 = load ptr, ptr %2, align 8
  %34 = getelementptr inbounds nuw %struct.VirtioPCIDeviceTypeInfo, ptr %33, i32 0, i32 7
  %35 = load ptr, ptr %34, align 8
  store ptr %35, ptr %32, align 8
  %36 = getelementptr inbounds nuw %struct.TypeInfo, ptr %4, i32 0, i32 5
  store ptr null, ptr %36, align 8
  %37 = getelementptr inbounds nuw %struct.TypeInfo, ptr %4, i32 0, i32 6
  %38 = load ptr, ptr %2, align 8
  %39 = getelementptr inbounds nuw %struct.VirtioPCIDeviceTypeInfo, ptr %38, i32 0, i32 8
  %40 = load ptr, ptr %39, align 8
  store ptr %40, ptr %37, align 8
  %41 = getelementptr inbounds nuw %struct.TypeInfo, ptr %4, i32 0, i32 7
  store i8 1, ptr %41, align 8
  %42 = getelementptr i8, ptr %4, i64 57
  call void @llvm.memset.p0.i64(ptr align 1 %42, i8 0, i64 7, i1 false)
  %43 = getelementptr inbounds nuw %struct.TypeInfo, ptr %4, i32 0, i32 8
  %44 = load ptr, ptr %2, align 8
  %45 = getelementptr inbounds nuw %struct.VirtioPCIDeviceTypeInfo, ptr %44, i32 0, i32 6
  %46 = load i64, ptr %45, align 8
  store i64 %46, ptr %43, align 8
  %47 = getelementptr inbounds nuw %struct.TypeInfo, ptr %4, i32 0, i32 9
  store ptr null, ptr %47, align 8
  %48 = getelementptr inbounds nuw %struct.TypeInfo, ptr %4, i32 0, i32 10
  store ptr null, ptr %48, align 8
  %49 = getelementptr inbounds nuw %struct.TypeInfo, ptr %4, i32 0, i32 11
  store ptr null, ptr %49, align 8
  %50 = getelementptr inbounds nuw %struct.TypeInfo, ptr %4, i32 0, i32 12
  %51 = load ptr, ptr %2, align 8
  %52 = getelementptr inbounds nuw %struct.VirtioPCIDeviceTypeInfo, ptr %51, i32 0, i32 10
  %53 = load ptr, ptr %52, align 8
  store ptr %53, ptr %50, align 8
  call void @llvm.lifetime.start.p0(i64 104, ptr %5) #13
  call void @llvm.memset.p0.i64(ptr align 8 %5, i8 0, i64 104, i1 false), !annotation !4
  %54 = getelementptr inbounds nuw %struct.TypeInfo, ptr %5, i32 0, i32 0
  %55 = load ptr, ptr %2, align 8
  %56 = getelementptr inbounds nuw %struct.VirtioPCIDeviceTypeInfo, ptr %55, i32 0, i32 1
  %57 = load ptr, ptr %56, align 8
  store ptr %57, ptr %54, align 8
  %58 = getelementptr inbounds nuw %struct.TypeInfo, ptr %5, i32 0, i32 1
  %59 = getelementptr inbounds nuw %struct.TypeInfo, ptr %4, i32 0, i32 0
  %60 = load ptr, ptr %59, align 8
  store ptr %60, ptr %58, align 8
  %61 = getelementptr inbounds nuw %struct.TypeInfo, ptr %5, i32 0, i32 2
  store i64 0, ptr %61, align 8
  %62 = getelementptr inbounds nuw %struct.TypeInfo, ptr %5, i32 0, i32 3
  store i64 0, ptr %62, align 8
  %63 = getelementptr inbounds nuw %struct.TypeInfo, ptr %5, i32 0, i32 4
  store ptr null, ptr %63, align 8
  %64 = getelementptr inbounds nuw %struct.TypeInfo, ptr %5, i32 0, i32 5
  store ptr null, ptr %64, align 8
  %65 = getelementptr inbounds nuw %struct.TypeInfo, ptr %5, i32 0, i32 6
  store ptr null, ptr %65, align 8
  %66 = getelementptr inbounds nuw %struct.TypeInfo, ptr %5, i32 0, i32 7
  store i8 0, ptr %66, align 8
  %67 = getelementptr i8, ptr %5, i64 57
  call void @llvm.memset.p0.i64(ptr align 1 %67, i8 0, i64 7, i1 false)
  %68 = getelementptr inbounds nuw %struct.TypeInfo, ptr %5, i32 0, i32 8
  store i64 0, ptr %68, align 8
  %69 = getelementptr inbounds nuw %struct.TypeInfo, ptr %5, i32 0, i32 9
  store ptr @virtio_pci_generic_class_init, ptr %69, align 8
  %70 = getelementptr inbounds nuw %struct.TypeInfo, ptr %5, i32 0, i32 10
  store ptr null, ptr %70, align 8
  %71 = getelementptr inbounds nuw %struct.TypeInfo, ptr %5, i32 0, i32 11
  store ptr null, ptr %71, align 8
  %72 = getelementptr inbounds nuw %struct.TypeInfo, ptr %5, i32 0, i32 12
  call void @llvm.memcpy.p0.p0.i64(ptr align 8 %6, ptr align 8 @constinit, i64 24, i1 false)
  %73 = getelementptr inbounds [3 x %struct.InterfaceInfo], ptr %6, i64 0, i64 0
  store ptr %73, ptr %72, align 8
  %74 = getelementptr inbounds nuw %struct.TypeInfo, ptr %4, i32 0, i32 0
  %75 = load ptr, ptr %74, align 8
  %76 = icmp ne ptr %75, null
  br i1 %76, label %104, label %77

77:                                               ; preds = %25
  %78 = load ptr, ptr %2, align 8
  %79 = getelementptr inbounds nuw %struct.VirtioPCIDeviceTypeInfo, ptr %78, i32 0, i32 1
  %80 = load ptr, ptr %79, align 8
  %81 = call noalias ptr (ptr, ...) @g_strdup_printf(ptr noundef @.str.3, ptr noundef %80)
  store ptr %81, ptr %3, align 8
  %82 = load ptr, ptr %3, align 8
  %83 = getelementptr inbounds nuw %struct.TypeInfo, ptr %4, i32 0, i32 0
  store ptr %82, ptr %83, align 8
  %84 = getelementptr inbounds nuw %struct.TypeInfo, ptr %4, i32 0, i32 9
  store ptr @virtio_pci_generic_class_init, ptr %84, align 8
  %85 = load ptr, ptr %3, align 8
  %86 = getelementptr inbounds nuw %struct.TypeInfo, ptr %5, i32 0, i32 1
  store ptr %85, ptr %86, align 8
  %87 = getelementptr inbounds nuw %struct.TypeInfo, ptr %5, i32 0, i32 9
  store ptr @virtio_pci_base_class_init, ptr %87, align 8
  %88 = load ptr, ptr %2, align 8
  %89 = getelementptr inbounds nuw %struct.TypeInfo, ptr %5, i32 0, i32 11
  store ptr %88, ptr %89, align 8
  %90 = load ptr, ptr %2, align 8
  %91 = getelementptr inbounds nuw %struct.VirtioPCIDeviceTypeInfo, ptr %90, i32 0, i32 3
  %92 = load ptr, ptr %91, align 8
  %93 = icmp ne ptr %92, null
  br i1 %93, label %95, label %94

94:                                               ; preds = %77
  br label %96

95:                                               ; preds = %77
  call void @__assert_fail(ptr noundef @.str.4, ptr noundef @.str.5, i32 noundef 2505, ptr noundef @__PRETTY_FUNCTION__.virtio_pci_types_register) #14
  unreachable

96:                                               ; preds = %94
  %97 = load ptr, ptr %2, align 8
  %98 = getelementptr inbounds nuw %struct.VirtioPCIDeviceTypeInfo, ptr %97, i32 0, i32 2
  %99 = load ptr, ptr %98, align 8
  %100 = icmp ne ptr %99, null
  br i1 %100, label %102, label %101

101:                                              ; preds = %96
  br label %103

102:                                              ; preds = %96
  call void @__assert_fail(ptr noundef @.str.6, ptr noundef @.str.5, i32 noundef 2506, ptr noundef @__PRETTY_FUNCTION__.virtio_pci_types_register) #14
  unreachable

103:                                              ; preds = %101
  br label %108

104:                                              ; preds = %25
  %105 = getelementptr inbounds nuw %struct.TypeInfo, ptr %4, i32 0, i32 9
  store ptr @virtio_pci_base_class_init, ptr %105, align 8
  %106 = load ptr, ptr %2, align 8
  %107 = getelementptr inbounds nuw %struct.TypeInfo, ptr %4, i32 0, i32 11
  store ptr %106, ptr %107, align 8
  br label %108

108:                                              ; preds = %104, %103
  %109 = call ptr @type_register_static(ptr noundef %4)
  %110 = getelementptr inbounds nuw %struct.TypeInfo, ptr %5, i32 0, i32 0
  %111 = load ptr, ptr %110, align 8
  %112 = icmp ne ptr %111, null
  br i1 %112, label %113, label %115

113:                                              ; preds = %108
  %114 = call ptr @type_register_static(ptr noundef %5)
  br label %115

115:                                              ; preds = %113, %108
  %116 = load ptr, ptr %2, align 8
  %117 = getelementptr inbounds nuw %struct.VirtioPCIDeviceTypeInfo, ptr %116, i32 0, i32 3
  %118 = load ptr, ptr %117, align 8
  %119 = icmp ne ptr %118, null
  br i1 %119, label %120, label %142

120:                                              ; preds = %115
  call void @llvm.lifetime.start.p0(i64 104, ptr %7) #13
  call void @llvm.memset.p0.i64(ptr align 8 %7, i8 0, i64 104, i1 false), !annotation !4
  %121 = getelementptr inbounds nuw %struct.TypeInfo, ptr %7, i32 0, i32 0
  %122 = load ptr, ptr %2, align 8
  %123 = getelementptr inbounds nuw %struct.VirtioPCIDeviceTypeInfo, ptr %122, i32 0, i32 3
  %124 = load ptr, ptr %123, align 8
  store ptr %124, ptr %121, align 8
  %125 = getelementptr inbounds nuw %struct.TypeInfo, ptr %7, i32 0, i32 1
  %126 = getelementptr inbounds nuw %struct.TypeInfo, ptr %4, i32 0, i32 0
  %127 = load ptr, ptr %126, align 8
  store ptr %127, ptr %125, align 8
  %128 = getelementptr inbounds nuw %struct.TypeInfo, ptr %7, i32 0, i32 2
  store i64 0, ptr %128, align 8
  %129 = getelementptr inbounds nuw %struct.TypeInfo, ptr %7, i32 0, i32 3
  store i64 0, ptr %129, align 8
  %130 = getelementptr inbounds nuw %struct.TypeInfo, ptr %7, i32 0, i32 4
  store ptr @virtio_pci_non_transitional_instance_init, ptr %130, align 8
  %131 = getelementptr inbounds nuw %struct.TypeInfo, ptr %7, i32 0, i32 5
  store ptr null, ptr %131, align 8
  %132 = getelementptr inbounds nuw %struct.TypeInfo, ptr %7, i32 0, i32 6
  store ptr null, ptr %132, align 8
  %133 = getelementptr inbounds nuw %struct.TypeInfo, ptr %7, i32 0, i32 7
  store i8 0, ptr %133, align 8
  %134 = getelementptr i8, ptr %7, i64 57
  call void @llvm.memset.p0.i64(ptr align 1 %134, i8 0, i64 7, i1 false)
  %135 = getelementptr inbounds nuw %struct.TypeInfo, ptr %7, i32 0, i32 8
  store i64 0, ptr %135, align 8
  %136 = getelementptr inbounds nuw %struct.TypeInfo, ptr %7, i32 0, i32 9
  store ptr null, ptr %136, align 8
  %137 = getelementptr inbounds nuw %struct.TypeInfo, ptr %7, i32 0, i32 10
  store ptr null, ptr %137, align 8
  %138 = getelementptr inbounds nuw %struct.TypeInfo, ptr %7, i32 0, i32 11
  store ptr null, ptr %138, align 8
  %139 = getelementptr inbounds nuw %struct.TypeInfo, ptr %7, i32 0, i32 12
  call void @llvm.memcpy.p0.p0.i64(ptr align 8 %8, ptr align 8 @constinit.7, i64 24, i1 false)
  %140 = getelementptr inbounds [3 x %struct.InterfaceInfo], ptr %8, i64 0, i64 0
  store ptr %140, ptr %139, align 8
  %141 = call ptr @type_register_static(ptr noundef %7)
  call void @llvm.lifetime.end.p0(i64 104, ptr %7) #13
  br label %142

142:                                              ; preds = %120, %115
  %143 = load ptr, ptr %2, align 8
  %144 = getelementptr inbounds nuw %struct.VirtioPCIDeviceTypeInfo, ptr %143, i32 0, i32 2
  %145 = load ptr, ptr %144, align 8
  %146 = icmp ne ptr %145, null
  br i1 %146, label %147, label %172

147:                                              ; preds = %142
  call void @llvm.lifetime.start.p0(i64 104, ptr %9) #13
  call void @llvm.memset.p0.i64(ptr align 8 %9, i8 0, i64 104, i1 false), !annotation !4
  %148 = getelementptr inbounds nuw %struct.TypeInfo, ptr %9, i32 0, i32 0
  %149 = load ptr, ptr %2, align 8
  %150 = getelementptr inbounds nuw %struct.VirtioPCIDeviceTypeInfo, ptr %149, i32 0, i32 2
  %151 = load ptr, ptr %150, align 8
  store ptr %151, ptr %148, align 8
  %152 = getelementptr inbounds nuw %struct.TypeInfo, ptr %9, i32 0, i32 1
  %153 = getelementptr inbounds nuw %struct.TypeInfo, ptr %4, i32 0, i32 0
  %154 = load ptr, ptr %153, align 8
  store ptr %154, ptr %152, align 8
  %155 = getelementptr inbounds nuw %struct.TypeInfo, ptr %9, i32 0, i32 2
  store i64 0, ptr %155, align 8
  %156 = getelementptr inbounds nuw %struct.TypeInfo, ptr %9, i32 0, i32 3
  store i64 0, ptr %156, align 8
  %157 = getelementptr inbounds nuw %struct.TypeInfo, ptr %9, i32 0, i32 4
  store ptr @virtio_pci_transitional_instance_init, ptr %157, align 8
  %158 = getelementptr inbounds nuw %struct.TypeInfo, ptr %9, i32 0, i32 5
  store ptr null, ptr %158, align 8
  %159 = getelementptr inbounds nuw %struct.TypeInfo, ptr %9, i32 0, i32 6
  store ptr null, ptr %159, align 8
  %160 = getelementptr inbounds nuw %struct.TypeInfo, ptr %9, i32 0, i32 7
  store i8 0, ptr %160, align 8
  %161 = getelementptr i8, ptr %9, i64 57
  call void @llvm.memset.p0.i64(ptr align 1 %161, i8 0, i64 7, i1 false)
  %162 = getelementptr inbounds nuw %struct.TypeInfo, ptr %9, i32 0, i32 8
  store i64 0, ptr %162, align 8
  %163 = getelementptr inbounds nuw %struct.TypeInfo, ptr %9, i32 0, i32 9
  store ptr null, ptr %163, align 8
  %164 = getelementptr inbounds nuw %struct.TypeInfo, ptr %9, i32 0, i32 10
  store ptr null, ptr %164, align 8
  %165 = getelementptr inbounds nuw %struct.TypeInfo, ptr %9, i32 0, i32 11
  store ptr null, ptr %165, align 8
  %166 = getelementptr inbounds nuw %struct.TypeInfo, ptr %9, i32 0, i32 12
  %167 = getelementptr inbounds nuw %struct.InterfaceInfo, ptr %10, i32 0, i32 0
  store ptr @.str.2, ptr %167, align 8
  %168 = getelementptr inbounds %struct.InterfaceInfo, ptr %10, i64 1
  %169 = getelementptr inbounds nuw %struct.InterfaceInfo, ptr %168, i32 0, i32 0
  store ptr null, ptr %169, align 8
  %170 = getelementptr inbounds [2 x %struct.InterfaceInfo], ptr %10, i64 0, i64 0
  store ptr %170, ptr %166, align 8
  %171 = call ptr @type_register_static(ptr noundef %9)
  call void @llvm.lifetime.end.p0(i64 104, ptr %9) #13
  br label %172

172:                                              ; preds = %147, %142
  %173 = load ptr, ptr %3, align 8
  call void @g_free(ptr noundef %173)
  call void @llvm.lifetime.end.p0(i64 104, ptr %5) #13
  call void @llvm.lifetime.end.p0(i64 104, ptr %4) #13
  call void @llvm.lifetime.end.p0(i64 8, ptr %3) #13
  ret void
}