; Function Attrs: nounwind sspstrong uwtable
define dso_local void @virtio_pci_types_register(ptr noundef %0) local_unnamed_addr #0 {
  %2 = alloca %struct.TypeInfo, align 8
  %3 = alloca %struct.TypeInfo, align 8
  %4 = alloca [3 x %struct.InterfaceInfo], align 8
  %5 = alloca %struct.TypeInfo, align 8
  %6 = alloca [3 x %struct.InterfaceInfo], align 8
  %7 = alloca %struct.TypeInfo, align 8
  %8 = alloca [2 x %struct.InterfaceInfo], align 8
  call void @llvm.lifetime.start.p0(i64 104, ptr nonnull %2) #15
  %9 = load ptr, ptr %0, align 8
  store ptr %9, ptr %2, align 8
  %10 = getelementptr inbounds nuw i8, ptr %2, i64 8
  %11 = getelementptr inbounds nuw i8, ptr %0, i64 32
  %12 = load ptr, ptr %11, align 8
  %.not = icmp eq ptr %12, null
  %spec.select = select i1 %.not, ptr @.str, ptr %12
  store ptr %spec.select, ptr %10, align 8
  %13 = getelementptr inbounds nuw i8, ptr %2, i64 16
  %14 = getelementptr inbounds nuw i8, ptr %0, i64 40
  %15 = load i64, ptr %14, align 8
  store i64 %15, ptr %13, align 8
  %16 = getelementptr inbounds nuw i8, ptr %2, i64 24
  store i64 0, ptr %16, align 8
  %17 = getelementptr inbounds nuw i8, ptr %2, i64 32
  %18 = getelementptr inbounds nuw i8, ptr %0, i64 56
  %19 = load ptr, ptr %18, align 8
  store ptr %19, ptr %17, align 8
  %20 = getelementptr inbounds nuw i8, ptr %2, i64 40
  store ptr null, ptr %20, align 8
  %21 = getelementptr inbounds nuw i8, ptr %2, i64 48
  %22 = getelementptr inbounds nuw i8, ptr %0, i64 64
  %23 = load ptr, ptr %22, align 8
  store ptr %23, ptr %21, align 8
  %24 = getelementptr inbounds nuw i8, ptr %2, i64 56
  store i8 1, ptr %24, align 8
  %25 = getelementptr inbounds nuw i8, ptr %2, i64 57
  call void @llvm.memset.p0.i64(ptr noundef nonnull align 1 dereferenceable(7) %25, i8 0, i64 7, i1 false)
  %26 = getelementptr inbounds nuw i8, ptr %2, i64 64
  %27 = getelementptr inbounds nuw i8, ptr %0, i64 48
  %28 = load i64, ptr %27, align 8
  store i64 %28, ptr %26, align 8
  %29 = getelementptr inbounds nuw i8, ptr %2, i64 72
  %30 = getelementptr inbounds nuw i8, ptr %2, i64 96
  %31 = getelementptr inbounds nuw i8, ptr %0, i64 80
  call void @llvm.memset.p0.i64(ptr noundef nonnull align 8 dereferenceable(24) %29, i8 0, i64 24, i1 false)
  %32 = load ptr, ptr %31, align 8
  store ptr %32, ptr %30, align 8
  call void @llvm.lifetime.start.p0(i64 104, ptr nonnull %3) #15
  %33 = getelementptr inbounds nuw i8, ptr %0, i64 8
  %34 = load ptr, ptr %33, align 8
  store ptr %34, ptr %3, align 8
  %35 = getelementptr inbounds nuw i8, ptr %3, i64 8
  store ptr %9, ptr %35, align 8
  %36 = getelementptr inbounds nuw i8, ptr %3, i64 16
  %37 = getelementptr inbounds nuw i8, ptr %3, i64 72
  call void @llvm.memset.p0.i64(ptr noundef nonnull align 8 dereferenceable(56) %36, i8 0, i64 56, i1 false)
  store ptr @virtio_pci_generic_class_init, ptr %37, align 8
  %38 = getelementptr inbounds nuw i8, ptr %3, i64 80
  %39 = getelementptr inbounds nuw i8, ptr %3, i64 96
  call void @llvm.memset.p0.i64(ptr noundef nonnull align 8 dereferenceable(16) %38, i8 0, i64 16, i1 false)
  call void @llvm.memcpy.p0.p0.i64(ptr noundef nonnull align 8 dereferenceable(24) %4, ptr noundef nonnull align 8 dereferenceable(24) @constinit.7, i64 24, i1 false)
  store ptr %4, ptr %39, align 8
  %.not22 = icmp eq ptr %9, null
  br i1 %.not22, label %40, label %50

40:                                               ; preds = %1
  %41 = getelementptr inbounds nuw i8, ptr %3, i64 88
  %42 = call noalias ptr (ptr, ...) @g_strdup_printf(ptr noundef nonnull @.str.3, ptr noundef %34) #15
  store ptr %42, ptr %2, align 8
  store ptr @virtio_pci_generic_class_init, ptr %29, align 8
  store ptr %42, ptr %35, align 8
  store ptr @virtio_pci_base_class_init, ptr %37, align 8
  store ptr %0, ptr %41, align 8
  %43 = getelementptr inbounds nuw i8, ptr %0, i64 24
  %44 = load ptr, ptr %43, align 8
  %.not23 = icmp eq ptr %44, null
  br i1 %.not23, label %46, label %45

45:                                               ; preds = %40
  call void @__assert_fail(ptr noundef nonnull @.str.4, ptr noundef nonnull @.str.5, i32 noundef 2505, ptr noundef nonnull @__PRETTY_FUNCTION__.virtio_pci_types_register) #16
  unreachable

46:                                               ; preds = %40
  %47 = getelementptr inbounds nuw i8, ptr %0, i64 16
  %48 = load ptr, ptr %47, align 8
  %.not24 = icmp eq ptr %48, null
  br i1 %.not24, label %52, label %49

49:                                               ; preds = %46
  call void @__assert_fail(ptr noundef nonnull @.str.6, ptr noundef nonnull @.str.5, i32 noundef 2506, ptr noundef nonnull @__PRETTY_FUNCTION__.virtio_pci_types_register) #16
  unreachable

50:                                               ; preds = %1
  %51 = getelementptr inbounds nuw i8, ptr %2, i64 88
  store ptr @virtio_pci_base_class_init, ptr %29, align 8
  store ptr %0, ptr %51, align 8
  br label %52

52:                                               ; preds = %46, %50
  %.0 = phi ptr [ null, %50 ], [ %42, %46 ]
  %53 = call ptr @type_register_static(ptr noundef nonnull %2) #15
  %.not25 = icmp eq ptr %34, null
  br i1 %.not25, label %56, label %54

54:                                               ; preds = %52
  %55 = call ptr @type_register_static(ptr noundef nonnull %3) #15
  br label %56

56:                                               ; preds = %54, %52
  %57 = getelementptr inbounds nuw i8, ptr %0, i64 24
  %58 = load ptr, ptr %57, align 8
  %.not26 = icmp eq ptr %58, null
  br i1 %.not26, label %67, label %59

59:                                               ; preds = %56
  call void @llvm.lifetime.start.p0(i64 104, ptr nonnull %5) #15
  store ptr %58, ptr %5, align 8
  %60 = getelementptr inbounds nuw i8, ptr %5, i64 8
  %61 = load ptr, ptr %2, align 8
  store ptr %61, ptr %60, align 8
  %62 = getelementptr inbounds nuw i8, ptr %5, i64 16
  %63 = getelementptr inbounds nuw i8, ptr %5, i64 32
  call void @llvm.memset.p0.i64(ptr noundef nonnull align 8 dereferenceable(16) %62, i8 0, i64 16, i1 false)
  store ptr @virtio_pci_non_transitional_instance_init, ptr %63, align 8
  %64 = getelementptr inbounds nuw i8, ptr %5, i64 40
  %65 = getelementptr inbounds nuw i8, ptr %5, i64 96
  call void @llvm.memset.p0.i64(ptr noundef nonnull align 8 dereferenceable(56) %64, i8 0, i64 56, i1 false)
  call void @llvm.memcpy.p0.p0.i64(ptr noundef nonnull align 8 dereferenceable(24) %6, ptr noundef nonnull align 8 dereferenceable(24) @constinit.7, i64 24, i1 false)
  store ptr %6, ptr %65, align 8
  %66 = call ptr @type_register_static(ptr noundef nonnull %5) #15
  call void @llvm.lifetime.end.p0(i64 104, ptr nonnull %5) #15
  br label %67

67:                                               ; preds = %59, %56
  %68 = getelementptr inbounds nuw i8, ptr %0, i64 16
  %69 = load ptr, ptr %68, align 8
  %.not27 = icmp eq ptr %69, null
  br i1 %.not27, label %79, label %70

70:                                               ; preds = %67
  call void @llvm.lifetime.start.p0(i64 104, ptr nonnull %7) #15
  store ptr %69, ptr %7, align 8
  %71 = getelementptr inbounds nuw i8, ptr %7, i64 8
  %72 = load ptr, ptr %2, align 8
  store ptr %72, ptr %71, align 8
  %73 = getelementptr inbounds nuw i8, ptr %7, i64 16
  %74 = getelementptr inbounds nuw i8, ptr %7, i64 32
  call void @llvm.memset.p0.i64(ptr noundef nonnull align 8 dereferenceable(16) %73, i8 0, i64 16, i1 false)
  store ptr @virtio_pci_transitional_instance_init, ptr %74, align 8
  %75 = getelementptr inbounds nuw i8, ptr %7, i64 40
  %76 = getelementptr inbounds nuw i8, ptr %7, i64 96
  call void @llvm.memset.p0.i64(ptr noundef nonnull align 8 dereferenceable(56) %75, i8 0, i64 56, i1 false)
  store ptr @.str.2, ptr %8, align 8
  %77 = getelementptr inbounds nuw i8, ptr %8, i64 8
  store ptr null, ptr %77, align 8
  store ptr %8, ptr %76, align 8
  %78 = call ptr @type_register_static(ptr noundef nonnull %7) #15
  call void @llvm.lifetime.end.p0(i64 104, ptr nonnull %7) #15
  br label %79

79:                                               ; preds = %70, %67
  call void @g_free(ptr noundef %.0) #15
  call void @llvm.lifetime.end.p0(i64 104, ptr nonnull %3) #15
  call void @llvm.lifetime.end.p0(i64 104, ptr nonnull %2) #15
  ret void
}